target datalayout = "e-m:e-p270:32:32-p271:32:32-p272:64:64-i64:64-i128:128-f80:128-n8:16:32:64-S128"
target triple = "x86_64-pc-linux-gnu"

%struct.darktable_t = type { %struct.dt_codepath_t, i32, i32, ptr, ptr, ptr, ptr, ptr, ptr, ptr, ptr, ptr, ptr, ptr, ptr, ptr, ptr, ptr, ptr, ptr, ptr, ptr, ptr, ptr, ptr, ptr, ptr, ptr, ptr, ptr, [64 x %struct.dt_pthread_mutex_t], %struct.dt_pthread_mutex_t, %struct.dt_pthread_mutex_t, %struct.dt_pthread_mutex_t, %struct.dt_pthread_mutex_t, %struct.dt_pthread_mutex_t, ptr, ptr, ptr, ptr, ptr, ptr, ptr, ptr, ptr, ptr, ptr, ptr, ptr, %struct.dt_lua_state_t, ptr, double, ptr, i32, [47 x i32], i32, i32, ptr, ptr, %struct.dt_sys_resources_t, %struct.dt_backthumb_t, %struct.dt_gimp_t }
%struct.dt_codepath_t = type { i8, [3 x i8] }
%struct.dt_pthread_mutex_t = type { %union.pthread_mutex_t }
%union.pthread_mutex_t = type { %struct.__pthread_mutex_s }
%struct.__pthread_mutex_s = type { i32, i32, i32, i32, i32, i16, i16, %struct.__pthread_internal_list }
%struct.__pthread_internal_list = type { ptr, ptr }
%struct.dt_lua_state_t = type { i32 }
%struct.dt_sys_resources_t = type { i64, i64, ptr, ptr, i32 }
%struct.dt_backthumb_t = type { double, double, i32, i32, i32, i32 }
%struct.dt_gimp_t = type { i32, ptr, ptr, i32, i32 }

@darktable = external global %struct.darktable_t, align 8
@.str.2 = private unnamed_addr constant [41 x i8] c"[sql] %s:%d, function %s(): prepare \22%s\22\00", align 1
@.str.3 = private unnamed_addr constant [115 x i8] c"generated/home/dtcxzyw/WorkSpace/Projects/compilers/llvm-opt-benchmark/bench/darktable/darktable/src/common/film.c\00", align 1
@stderr = external global ptr, align 8
@.str.5 = private unnamed_addr constant [53 x i8] c"sqlite3 error: %s:%d, function %s(), query \22%s\22: %s\0A\00", align 1
@.str.6 = private unnamed_addr constant [41 x i8] c"sqlite3 error: %s:%d, function %s(): %s\0A\00", align 1
@__FUNCTION__.dt_film_set_folder_status = private unnamed_addr constant [26 x i8] c"dt_film_set_folder_status\00", align 1
@.str.25 = private unnamed_addr constant [31 x i8] c"DELETE FROM memory.film_folder\00", align 1
@.str.26 = private unnamed_addr constant [39 x i8] c"SELECT id, folder FROM main.film_rolls\00", align 1
@.str.27 = private unnamed_addr constant [60 x i8] c"INSERT INTO memory.film_folder (id, status) VALUES (?1, ?2)\00", align 1

; Function Attrs: nounwind uwtable
define void @dt_film_set_folder_status() #0 {
  %1 = alloca ptr, align 8
  %2 = alloca ptr, align 8
  %3 = alloca i32, align 4
  %4 = alloca i32, align 4
  %5 = alloca i32, align 4
  %6 = alloca i32, align 4
  %7 = alloca ptr, align 8
  %8 = alloca i32, align 4
  %9 = alloca i32, align 4
  %10 = alloca i32, align 4
  call void @llvm.lifetime.start.p0(i64 8, ptr %1) #8
  call void @llvm.lifetime.start.p0(i64 8, ptr %2) #8
  br label %11

11:                                               ; preds = %0
  br label %12

12:                                               ; preds = %11
  %13 = load i32, ptr getelementptr inbounds nuw (%struct.darktable_t, ptr @darktable, i32 0, i32 2), align 8, !tbaa !25
  %14 = and i32 256, %13
  %15 = icmp ne i32 %14, 0
  br i1 %15, label %16, label %22

16:                                               ; preds = %12
  %17 = load i32, ptr getelementptr inbounds nuw (%struct.darktable_t, ptr @darktable, i32 0, i32 2), align 8, !tbaa !25
  %18 = xor i32 %17, -1
  %19 = and i32 0, %18
  %20 = icmp ne i32 %19, 0
  br i1 %20, label %22, label %21

21:                                               ; preds = %16
  call void (ptr, ...) @dt_print_ext(ptr noundef @.str.2, ptr noundef @.str.3, i32 noundef 530, ptr noundef @__FUNCTION__.dt_film_set_folder_status, ptr noundef @.str.25)
  br label %22

22:                                               ; preds = %21, %16, %12
  br label %23

23:                                               ; preds = %22
  br label %24

24:                                               ; preds = %23
  call void @llvm.lifetime.start.p0(i64 4, ptr %3) #8
  %25 = load ptr, ptr getelementptr inbounds nuw (%struct.darktable_t, ptr @darktable, i32 0, i32 18), align 8, !tbaa !62
  %26 = call ptr @dt_database_get(ptr noundef %25)
  %27 = call i32 @sqlite3_prepare_v2(ptr noundef %26, ptr noundef @.str.25, i32 noundef -1, ptr noundef %1, ptr noundef null)
  store i32 %27, ptr %3, align 4, !tbaa !24
  %28 = load i32, ptr %3, align 4, !tbaa !24
  %29 = icmp ne i32 %28, 0
  br i1 %29, label %30, label %36

30:                                               ; preds = %24
  %31 = load ptr, ptr @stderr, align 8, !tbaa !63
  %32 = load ptr, ptr getelementptr inbounds nuw (%struct.darktable_t, ptr @darktable, i32 0, i32 18), align 8, !tbaa !62
  %33 = call ptr @dt_database_get(ptr noundef %32)
  %34 = call ptr @sqlite3_errmsg(ptr noundef %33)
  %35 = call i32 (ptr, ptr, ...) @fprintf(ptr noundef %31, ptr noundef @.str.5, ptr noundef @.str.3, i32 noundef 530, ptr noundef @__FUNCTION__.dt_film_set_folder_status, ptr noundef @.str.25, ptr noundef %34) #8
  br label %36

36:                                               ; preds = %30, %24
  call void @llvm.lifetime.end.p0(i64 4, ptr %3) #8
  br label %37

37:                                               ; preds = %36
  br label %38

38:                                               ; preds = %37
  %39 = load ptr, ptr %1, align 8, !tbaa !65
  %40 = call i32 @sqlite3_step(ptr noundef %39)
  %41 = load ptr, ptr %1, align 8, !tbaa !65
  %42 = call i32 @sqlite3_finalize(ptr noundef %41)
  br label %43

43:                                               ; preds = %38
  br label %44

44:                                               ; preds = %43
  %45 = load i32, ptr getelementptr inbounds nuw (%struct.darktable_t, ptr @darktable, i32 0, i32 2), align 8, !tbaa !25
  %46 = and i32 256, %45
  %47 = icmp ne i32 %46, 0
  br i1 %47, label %48, label %54

48:                                               ; preds = %44
  %49 = load i32, ptr getelementptr inbounds nuw (%struct.darktable_t, ptr @darktable, i32 0, i32 2), align 8, !tbaa !25
  %50 = xor i32 %49, -1
  %51 = and i32 0, %50
  %52 = icmp ne i32 %51, 0
  br i1 %52, label %54, label %53

53:                                               ; preds = %48
  call void (ptr, ...) @dt_print_ext(ptr noundef @.str.2, ptr noundef @.str.3, i32 noundef 536, ptr noundef @__FUNCTION__.dt_film_set_folder_status, ptr noundef @.str.26)
  br label %54

54:                                               ; preds = %53, %48, %44
  br label %55

55:                                               ; preds = %54
  br label %56

56:                                               ; preds = %55
  call void @llvm.lifetime.start.p0(i64 4, ptr %4) #8
  %57 = load ptr, ptr getelementptr inbounds nuw (%struct.darktable_t, ptr @darktable, i32 0, i32 18), align 8, !tbaa !62
  %58 = call ptr @dt_database_get(ptr noundef %57)
  %59 = call i32 @sqlite3_prepare_v2(ptr noundef %58, ptr noundef @.str.26, i32 noundef -1, ptr noundef %1, ptr noundef null)
  store i32 %59, ptr %4, align 4, !tbaa !24
  %60 = load i32, ptr %4, align 4, !tbaa !24
  %61 = icmp ne i32 %60, 0
  br i1 %61, label %62, label %68

62:                                               ; preds = %56
  %63 = load ptr, ptr @stderr, align 8, !tbaa !63
  %64 = load ptr, ptr getelementptr inbounds nuw (%struct.darktable_t, ptr @darktable, i32 0, i32 18), align 8, !tbaa !62
  %65 = call ptr @dt_database_get(ptr noundef %64)
  %66 = call ptr @sqlite3_errmsg(ptr noundef %65)
  %67 = call i32 (ptr, ptr, ...) @fprintf(ptr noundef %63, ptr noundef @.str.5, ptr noundef @.str.3, i32 noundef 536, ptr noundef @__FUNCTION__.dt_film_set_folder_status, ptr noundef @.str.26, ptr noundef %66) #8
  br label %68

68:                                               ; preds = %62, %56
  call void @llvm.lifetime.end.p0(i64 4, ptr %4) #8
  br label %69

69:                                               ; preds = %68
  br label %70

70:                                               ; preds = %69
  br label %71

71:                                               ; preds = %70
  br label %72

72:                                               ; preds = %71
  %73 = load i32, ptr getelementptr inbounds nuw (%struct.darktable_t, ptr @darktable, i32 0, i32 2), align 8, !tbaa !25
  %74 = and i32 256, %73
  %75 = icmp ne i32 %74, 0
  br i1 %75, label %76, label %82

76:                                               ; preds = %72
  %77 = load i32, ptr getelementptr inbounds nuw (%struct.darktable_t, ptr @darktable, i32 0, i32 2), align 8, !tbaa !25
  %78 = xor i32 %77, -1
  %79 = and i32 0, %78
  %80 = icmp ne i32 %79, 0
  br i1 %80, label %82, label %81

81:                                               ; preds = %76
  call void (ptr, ...) @dt_print_ext(ptr noundef @.str.2, ptr noundef @.str.3, i32 noundef 542, ptr noundef @__FUNCTION__.dt_film_set_folder_status, ptr noundef @.str.27)
  br label %82

82:                                               ; preds = %81, %76, %72
  br label %83

83:                                               ; preds = %82
  br label %84

84:                                               ; preds = %83
  call void @llvm.lifetime.start.p0(i64 4, ptr %5) #8
  %85 = load ptr, ptr getelementptr inbounds nuw (%struct.darktable_t, ptr @darktable, i32 0, i32 18), align 8, !tbaa !62
  %86 = call ptr @dt_database_get(ptr noundef %85)
  %87 = call i32 @sqlite3_prepare_v2(ptr noundef %86, ptr noundef @.str.27, i32 noundef -1, ptr noundef %2, ptr noundef null)
  store i32 %87, ptr %5, align 4, !tbaa !24
  %88 = load i32, ptr %5, align 4, !tbaa !24
  %89 = icmp ne i32 %88, 0
  br i1 %89, label %90, label %96

90:                                               ; preds = %84
  %91 = load ptr, ptr @stderr, align 8, !tbaa !63
  %92 = load ptr, ptr getelementptr inbounds nuw (%struct.darktable_t, ptr @darktable, i32 0, i32 18), align 8, !tbaa !62
  %93 = call ptr @dt_database_get(ptr noundef %92)
  %94 = call ptr @sqlite3_errmsg(ptr noundef %93)
  %95 = call i32 (ptr, ptr, ...) @fprintf(ptr noundef %91, ptr noundef @.str.5, ptr noundef @.str.3, i32 noundef 542, ptr noundef @__FUNCTION__.dt_film_set_folder_status, ptr noundef @.str.27, ptr noundef %94) #8
  br label %96

96:                                               ; preds = %90, %84
  call void @llvm.lifetime.end.p0(i64 4, ptr %5) #8
  br label %97

97:                                               ; preds = %96
  br label %98

98:                                               ; preds = %97
  br label %99

99:                                               ; preds = %133, %98
  %100 = load ptr, ptr %1, align 8, !tbaa !65
  %101 = call i32 @sqlite3_step(ptr noundef %100)
  %102 = icmp eq i32 %101, 100
  br i1 %102, label %103, label %138

103:                                              ; preds = %99
  call void @llvm.lifetime.start.p0(i64 4, ptr %6) #8
  %104 = load ptr, ptr %1, align 8, !tbaa !65
  %105 = call i32 @sqlite3_column_int(ptr noundef %104, i32 noundef 0)
  store i32 %105, ptr %6, align 4, !tbaa !24
  call void @llvm.lifetime.start.p0(i64 8, ptr %7) #8
  %106 = load ptr, ptr %1, align 8, !tbaa !65
  %107 = call ptr @sqlite3_column_text(ptr noundef %106, i32 noundef 1)
  store ptr %107, ptr %7, align 8, !tbaa !68
  call void @llvm.lifetime.start.p0(i64 4, ptr %8) #8
  %108 = load ptr, ptr %7, align 8, !tbaa !68
  %109 = call i32 @g_file_test(ptr noundef %108, i32 noundef 4)
  store i32 %109, ptr %8, align 4, !tbaa !24
  call void @llvm.lifetime.start.p0(i64 4, ptr %9) #8
  %110 = load ptr, ptr %2, align 8, !tbaa !65
  %111 = load i32, ptr %6, align 4, !tbaa !24
  %112 = call i32 @sqlite3_bind_int(ptr noundef %110, i32 noundef 1, i32 noundef %111)
  store i32 %112, ptr %9, align 4, !tbaa !24
  %113 = load i32, ptr %9, align 4, !tbaa !24
  %114 = icmp ne i32 %113, 0
  br i1 %114, label %115, label %121

115:                                              ; preds = %103
  %116 = load ptr, ptr @stderr, align 8, !tbaa !63
  %117 = load ptr, ptr getelementptr inbounds nuw (%struct.darktable_t, ptr @darktable, i32 0, i32 18), align 8, !tbaa !62
  %118 = call ptr @dt_database_get(ptr noundef %117)
  %119 = call ptr @sqlite3_errmsg(ptr noundef %118)
  %120 = call i32 (ptr, ptr, ...) @fprintf(ptr noundef %116, ptr noundef @.str.6, ptr noundef @.str.3, i32 noundef 550, ptr noundef @__FUNCTION__.dt_film_set_folder_status, ptr noundef %119) #8
  br label %121

121:                                              ; preds = %115, %103
  call void @llvm.lifetime.end.p0(i64 4, ptr %9) #8
  call void @llvm.lifetime.start.p0(i64 4, ptr %10) #8
  %122 = load ptr, ptr %2, align 8, !tbaa !65
  %123 = load i32, ptr %8, align 4, !tbaa !24
  %124 = call i32 @sqlite3_bind_int(ptr noundef %122, i32 noundef 2, i32 noundef %123)
  store i32 %124, ptr %10, align 4, !tbaa !24
  %125 = load i32, ptr %10, align 4, !tbaa !24
  %126 = icmp ne i32 %125, 0
  br i1 %126, label %127, label %133

127:                                              ; preds = %121
  %128 = load ptr, ptr @stderr, align 8, !tbaa !63
  %129 = load ptr, ptr getelementptr inbounds nuw (%struct.darktable_t, ptr @darktable, i32 0, i32 18), align 8, !tbaa !62
  %130 = call ptr @dt_database_get(ptr noundef %129)
  %131 = call ptr @sqlite3_errmsg(ptr noundef %130)
  %132 = call i32 (ptr, ptr, ...) @fprintf(ptr noundef %128, ptr noundef @.str.6, ptr noundef @.str.3, i32 noundef 551, ptr noundef @__FUNCTION__.dt_film_set_folder_status, ptr noundef %131) #8
  br label %133

133:                                              ; preds = %127, %121
  call void @llvm.lifetime.end.p0(i64 4, ptr %10) #8
  %134 = load ptr, ptr %2, align 8, !tbaa !65
  %135 = call i32 @sqlite3_step(ptr noundef %134)
  %136 = load ptr, ptr %2, align 8, !tbaa !65
  %137 = call i32 @sqlite3_reset(ptr noundef %136)
  call void @llvm.lifetime.end.p0(i64 4, ptr %8) #8
  call void @llvm.lifetime.end.p0(i64 8, ptr %7) #8
  call void @llvm.lifetime.end.p0(i64 4, ptr %6) #8
  br label %99

138:                                              ; preds = %99
  %139 = load ptr, ptr %1, align 8, !tbaa !65
  %140 = call i32 @sqlite3_finalize(ptr noundef %139)
  %141 = load ptr, ptr %2, align 8, !tbaa !65
  %142 = call i32 @sqlite3_finalize(ptr noundef %141)
  call void @llvm.lifetime.end.p0(i64 8, ptr %2) #8
  call void @llvm.lifetime.end.p0(i64 8, ptr %1) #8
  ret void
}