; Function Attrs: nounwind uwtable
define void @dt_film_set_folder_status() local_unnamed_addr #0 {
  %1 = alloca ptr, align 8
  %2 = alloca ptr, align 8
  call void @llvm.lifetime.start.p0(i64 8, ptr nonnull %1) #11
  call void @llvm.lifetime.start.p0(i64 8, ptr nonnull %2) #11
  %3 = load i32, ptr getelementptr inbounds nuw (i8, ptr @darktable, i64 8), align 8, !tbaa !16
  %4 = and i32 %3, 256
  %.not = icmp eq i32 %4, 0
  br i1 %.not, label %6, label %5

5:                                                ; preds = %0
  tail call void (ptr, ...) @dt_print_ext(ptr noundef nonnull @.str.2, ptr noundef nonnull @.str.3, i32 noundef 530, ptr noundef nonnull @__FUNCTION__.dt_film_set_folder_status, ptr noundef nonnull @.str.25) #11
  br label %6

6:                                                ; preds = %5, %0
  %7 = load ptr, ptr getelementptr inbounds nuw (i8, ptr @darktable, i64 136), align 8, !tbaa !53
  %8 = tail call ptr @dt_database_get(ptr noundef %7) #11
  %9 = call i32 @sqlite3_prepare_v2(ptr noundef %8, ptr noundef nonnull @.str.25, i32 noundef -1, ptr noundef nonnull %1, ptr noundef null) #11
  %.not7 = icmp eq i32 %9, 0
  br i1 %.not7, label %16, label %10

10:                                               ; preds = %6
  %11 = load ptr, ptr @stderr, align 8, !tbaa !54
  %12 = load ptr, ptr getelementptr inbounds nuw (i8, ptr @darktable, i64 136), align 8, !tbaa !53
  %13 = call ptr @dt_database_get(ptr noundef %12) #11
  %14 = call ptr @sqlite3_errmsg(ptr noundef %13) #11
  %15 = call i32 (ptr, ptr, ...) @fprintf(ptr noundef %11, ptr noundef nonnull @.str.5, ptr noundef nonnull @.str.3, i32 noundef 530, ptr noundef nonnull @__FUNCTION__.dt_film_set_folder_status, ptr noundef nonnull @.str.25, ptr noundef %14) #12
  br label %16

16:                                               ; preds = %10, %6
  %17 = load ptr, ptr %1, align 8, !tbaa !56
  %18 = call i32 @sqlite3_step(ptr noundef %17) #11
  %19 = load ptr, ptr %1, align 8, !tbaa !56
  %20 = call i32 @sqlite3_finalize(ptr noundef %19) #11
  %21 = load i32, ptr getelementptr inbounds nuw (i8, ptr @darktable, i64 8), align 8, !tbaa !16
  %22 = and i32 %21, 256
  %.not8 = icmp eq i32 %22, 0
  br i1 %.not8, label %24, label %23

23:                                               ; preds = %16
  call void (ptr, ...) @dt_print_ext(ptr noundef nonnull @.str.2, ptr noundef nonnull @.str.3, i32 noundef 536, ptr noundef nonnull @__FUNCTION__.dt_film_set_folder_status, ptr noundef nonnull @.str.26) #11
  br label %24

24:                                               ; preds = %23, %16
  %25 = load ptr, ptr getelementptr inbounds nuw (i8, ptr @darktable, i64 136), align 8, !tbaa !53
  %26 = call ptr @dt_database_get(ptr noundef %25) #11
  %27 = call i32 @sqlite3_prepare_v2(ptr noundef %26, ptr noundef nonnull @.str.26, i32 noundef -1, ptr noundef nonnull %1, ptr noundef null) #11
  %.not9 = icmp eq i32 %27, 0
  br i1 %.not9, label %34, label %28

28:                                               ; preds = %24
  %29 = load ptr, ptr @stderr, align 8, !tbaa !54
  %30 = load ptr, ptr getelementptr inbounds nuw (i8, ptr @darktable, i64 136), align 8, !tbaa !53
  %31 = call ptr @dt_database_get(ptr noundef %30) #11
  %32 = call ptr @sqlite3_errmsg(ptr noundef %31) #11
  %33 = call i32 (ptr, ptr, ...) @fprintf(ptr noundef %29, ptr noundef nonnull @.str.5, ptr noundef nonnull @.str.3, i32 noundef 536, ptr noundef nonnull @__FUNCTION__.dt_film_set_folder_status, ptr noundef nonnull @.str.26, ptr noundef %32) #12
  br label %34

34:                                               ; preds = %28, %24
  %35 = load i32, ptr getelementptr inbounds nuw (i8, ptr @darktable, i64 8), align 8, !tbaa !16
  %36 = and i32 %35, 256
  %.not10 = icmp eq i32 %36, 0
  br i1 %.not10, label %38, label %37

37:                                               ; preds = %34
  call void (ptr, ...) @dt_print_ext(ptr noundef nonnull @.str.2, ptr noundef nonnull @.str.3, i32 noundef 542, ptr noundef nonnull @__FUNCTION__.dt_film_set_folder_status, ptr noundef nonnull @.str.27) #11
  br label %38

38:                                               ; preds = %37, %34
  %39 = load ptr, ptr getelementptr inbounds nuw (i8, ptr @darktable, i64 136), align 8, !tbaa !53
  %40 = call ptr @dt_database_get(ptr noundef %39) #11
  %41 = call i32 @sqlite3_prepare_v2(ptr noundef %40, ptr noundef nonnull @.str.27, i32 noundef -1, ptr noundef nonnull %2, ptr noundef null) #11
  %.not11 = icmp eq i32 %41, 0
  br i1 %.not11, label %48, label %42

42:                                               ; preds = %38
  %43 = load ptr, ptr @stderr, align 8, !tbaa !54
  %44 = load ptr, ptr getelementptr inbounds nuw (i8, ptr @darktable, i64 136), align 8, !tbaa !53
  %45 = call ptr @dt_database_get(ptr noundef %44) #11
  %46 = call ptr @sqlite3_errmsg(ptr noundef %45) #11
  %47 = call i32 (ptr, ptr, ...) @fprintf(ptr noundef %43, ptr noundef nonnull @.str.5, ptr noundef nonnull @.str.3, i32 noundef 542, ptr noundef nonnull @__FUNCTION__.dt_film_set_folder_status, ptr noundef nonnull @.str.27, ptr noundef %46) #12
  br label %48

48:                                               ; preds = %42, %38
  %49 = load ptr, ptr %1, align 8, !tbaa !56
  %50 = call i32 @sqlite3_step(ptr noundef %49) #11
  %51 = icmp eq i32 %50, 100
  br i1 %51, label %.lr.ph, label %._crit_edge

.lr.ph:                                           ; preds = %48, %74
  %52 = load ptr, ptr %1, align 8, !tbaa !56
  %53 = call i32 @sqlite3_column_int(ptr noundef %52, i32 noundef 0) #11
  %54 = load ptr, ptr %1, align 8, !tbaa !56
  %55 = call ptr @sqlite3_column_text(ptr noundef %54, i32 noundef 1) #11
  %56 = call i32 @g_file_test(ptr noundef %55, i32 noundef 4) #11
  %57 = load ptr, ptr %2, align 8, !tbaa !56
  %58 = call i32 @sqlite3_bind_int(ptr noundef %57, i32 noundef 1, i32 noundef %53) #11
  %.not12 = icmp eq i32 %58, 0
  br i1 %.not12, label %65, label %59

59:                                               ; preds = %.lr.ph
  %60 = load ptr, ptr @stderr, align 8, !tbaa !54
  %61 = load ptr, ptr getelementptr inbounds nuw (i8, ptr @darktable, i64 136), align 8, !tbaa !53
  %62 = call ptr @dt_database_get(ptr noundef %61) #11
  %63 = call ptr @sqlite3_errmsg(ptr noundef %62) #11
  %64 = call i32 (ptr, ptr, ...) @fprintf(ptr noundef %60, ptr noundef nonnull @.str.6, ptr noundef nonnull @.str.3, i32 noundef 550, ptr noundef nonnull @__FUNCTION__.dt_film_set_folder_status, ptr noundef %63) #12
  br label %65

65:                                               ; preds = %59, %.lr.ph
  %66 = load ptr, ptr %2, align 8, !tbaa !56
  %67 = call i32 @sqlite3_bind_int(ptr noundef %66, i32 noundef 2, i32 noundef %56) #11
  %.not13 = icmp eq i32 %67, 0
  br i1 %.not13, label %74, label %68

68:                                               ; preds = %65
  %69 = load ptr, ptr @stderr, align 8, !tbaa !54
  %70 = load ptr, ptr getelementptr inbounds nuw (i8, ptr @darktable, i64 136), align 8, !tbaa !53
  %71 = call ptr @dt_database_get(ptr noundef %70) #11
  %72 = call ptr @sqlite3_errmsg(ptr noundef %71) #11
  %73 = call i32 (ptr, ptr, ...) @fprintf(ptr noundef %69, ptr noundef nonnull @.str.6, ptr noundef nonnull @.str.3, i32 noundef 551, ptr noundef nonnull @__FUNCTION__.dt_film_set_folder_status, ptr noundef %72) #12
  br label %74

74:                                               ; preds = %68, %65
  %75 = load ptr, ptr %2, align 8, !tbaa !56
  %76 = call i32 @sqlite3_step(ptr noundef %75) #11
  %77 = load ptr, ptr %2, align 8, !tbaa !56
  %78 = call i32 @sqlite3_reset(ptr noundef %77) #11
  %79 = load ptr, ptr %1, align 8, !tbaa !56
  %80 = call i32 @sqlite3_step(ptr noundef %79) #11
  %81 = icmp eq i32 %80, 100
  br i1 %81, label %.lr.ph, label %._crit_edge

._crit_edge:                                      ; preds = %74, %48
  %82 = load ptr, ptr %1, align 8, !tbaa !56
  %83 = call i32 @sqlite3_finalize(ptr noundef %82) #11
  %84 = load ptr, ptr %2, align 8, !tbaa !56
  %85 = call i32 @sqlite3_finalize(ptr noundef %84) #11
  call void @llvm.lifetime.end.p0(i64 8, ptr nonnull %2) #11
  call void @llvm.lifetime.end.p0(i64 8, ptr nonnull %1) #11
  ret void
}